; ModuleID = '39/1052.c'
source_filename = "39/1052.c"
target datalayout = "e-m:e-p270:32:32-p271:32:32-p272:64:64-i64:64-f80:128-n8:16:32:64-S128"
target triple = "x86_64-pc-linux-gnu"

%struct.anon = type { [20 x i8], i32, i32, i8, i8, i32 }

@.str = private unnamed_addr constant [3 x i8] c"%d\00", align 1
@.str.1 = private unnamed_addr constant [18 x i8] c"%s %d %d %c %c %d\00", align 1
@.str.2 = private unnamed_addr constant [4 x i8] c"%s\0A\00", align 1
@.str.3 = private unnamed_addr constant [4 x i8] c"%d\0A\00", align 1

; Function Attrs: noinline nounwind uwtable
define dso_local i32 @main(i32 %0, i8** %1) #0 {
  %3 = alloca i32, align 4
  %4 = alloca i32, align 4
  %5 = alloca i8**, align 8
  %6 = alloca i32, align 4
  %7 = alloca [100 x i32], align 16
  %8 = alloca i32, align 4
  %9 = alloca i32, align 4
  %10 = alloca [100 x %struct.anon], align 16
  %11 = alloca i32, align 4
  %12 = alloca i32, align 4
  store i32 0, i32* %3, align 4
  store i32 %0, i32* %4, align 4
  store i8** %1, i8*** %5, align 8
  %13 = call i32 (i8*, ...) @__isoc99_scanf(i8* getelementptr inbounds ([3 x i8], [3 x i8]* @.str, i64 0, i64 0), i32* %6)
  store i32 0, i32* %8, align 4
  br label %14

14:                                               ; preds = %48, %2
  %15 = load i32, i32* %8, align 4
  %16 = load i32, i32* %6, align 4
  %17 = icmp slt i32 %15, %16
  br i1 %17, label %18, label %51

18:                                               ; preds = %14
  %19 = load i32, i32* %8, align 4
  %20 = sext i32 %19 to i64
  %21 = getelementptr inbounds [100 x i32], [100 x i32]* %7, i64 0, i64 %20
  store i32 0, i32* %21, align 4
  %22 = load i32, i32* %8, align 4
  %23 = sext i32 %22 to i64
  %24 = getelementptr inbounds [100 x %struct.anon], [100 x %struct.anon]* %10, i64 0, i64 %23
  %25 = getelementptr inbounds %struct.anon, %struct.anon* %24, i32 0, i32 0
  %26 = getelementptr inbounds [20 x i8], [20 x i8]* %25, i64 0, i64 0
  %27 = load i32, i32* %8, align 4
  %28 = sext i32 %27 to i64
  %29 = getelementptr inbounds [100 x %struct.anon], [100 x %struct.anon]* %10, i64 0, i64 %28
  %30 = getelementptr inbounds %struct.anon, %struct.anon* %29, i32 0, i32 1
  %31 = load i32, i32* %8, align 4
  %32 = sext i32 %31 to i64
  %33 = getelementptr inbounds [100 x %struct.anon], [100 x %struct.anon]* %10, i64 0, i64 %32
  %34 = getelementptr inbounds %struct.anon, %struct.anon* %33, i32 0, i32 2
  %35 = load i32, i32* %8, align 4
  %36 = sext i32 %35 to i64
  %37 = getelementptr inbounds [100 x %struct.anon], [100 x %struct.anon]* %10, i64 0, i64 %36
  %38 = getelementptr inbounds %struct.anon, %struct.anon* %37, i32 0, i32 3
  %39 = load i32, i32* %8, align 4
  %40 = sext i32 %39 to i64
  %41 = getelementptr inbounds [100 x %struct.anon], [100 x %struct.anon]* %10, i64 0, i64 %40
  %42 = getelementptr inbounds %struct.anon, %struct.anon* %41, i32 0, i32 4
  %43 = load i32, i32* %8, align 4
  %44 = sext i32 %43 to i64
  %45 = getelementptr inbounds [100 x %struct.anon], [100 x %struct.anon]* %10, i64 0, i64 %44
  %46 = getelementptr inbounds %struct.anon, %struct.anon* %45, i32 0, i32 5
  %47 = call i32 (i8*, ...) @__isoc99_scanf(i8* getelementptr inbounds ([18 x i8], [18 x i8]* @.str.1, i64 0, i64 0), i8* %26, i32* %30, i32* %34, i8* %38, i8* %42, i32* %46)
  br label %48

48:                                               ; preds = %18
  %49 = load i32, i32* %8, align 4
  %50 = add nsw i32 %49, 1
  store i32 %50, i32* %8, align 4
  br label %14

51:                                               ; preds = %14
  store i32 0, i32* %8, align 4
  br label %52

52:                                               ; preds = %152, %51
  %53 = load i32, i32* %8, align 4
  %54 = load i32, i32* %6, align 4
  %55 = icmp slt i32 %53, %54
  br i1 %55, label %56, label %155

56:                                               ; preds = %52
  %57 = load i32, i32* %8, align 4
  %58 = sext i32 %57 to i64
  %59 = getelementptr inbounds [100 x %struct.anon], [100 x %struct.anon]* %10, i64 0, i64 %58
  %60 = getelementptr inbounds %struct.anon, %struct.anon* %59, i32 0, i32 1
  %61 = load i32, i32* %60, align 4
  %62 = icmp sgt i32 %61, 80
  br i1 %62, label %63, label %76

63:                                               ; preds = %56
  %64 = load i32, i32* %8, align 4
  %65 = sext i32 %64 to i64
  %66 = getelementptr inbounds [100 x %struct.anon], [100 x %struct.anon]* %10, i64 0, i64 %65
  %67 = getelementptr inbounds %struct.anon, %struct.anon* %66, i32 0, i32 5
  %68 = load i32, i32* %67, align 4
  %69 = icmp sge i32 %68, 1
  br i1 %69, label %70, label %76

70:                                               ; preds = %63
  %71 = load i32, i32* %8, align 4
  %72 = sext i32 %71 to i64
  %73 = getelementptr inbounds [100 x i32], [100 x i32]* %7, i64 0, i64 %72
  %74 = load i32, i32* %73, align 4
  %75 = add nsw i32 %74, 8000
  store i32 %75, i32* %73, align 4
  br label %76

76:                                               ; preds = %70, %63, %56
  %77 = load i32, i32* %8, align 4
  %78 = sext i32 %77 to i64
  %79 = getelementptr inbounds [100 x %struct.anon], [100 x %struct.anon]* %10, i64 0, i64 %78
  %80 = getelementptr inbounds %struct.anon, %struct.anon* %79, i32 0, i32 1
  %81 = load i32, i32* %80, align 4
  %82 = icmp sgt i32 %81, 85
  br i1 %82, label %83, label %96

83:                                               ; preds = %76
  %84 = load i32, i32* %8, align 4
  %85 = sext i32 %84 to i64
  %86 = getelementptr inbounds [100 x %struct.anon], [100 x %struct.anon]* %10, i64 0, i64 %85
  %87 = getelementptr inbounds %struct.anon, %struct.anon* %86, i32 0, i32 2
  %88 = load i32, i32* %87, align 4
  %89 = icmp sgt i32 %88, 80
  br i1 %89, label %90, label %96

90:                                               ; preds = %83
  %91 = load i32, i32* %8, align 4
  %92 = sext i32 %91 to i64
  %93 = getelementptr inbounds [100 x i32], [100 x i32]* %7, i64 0, i64 %92
  %94 = load i32, i32* %93, align 4
  %95 = add nsw i32 %94, 4000
  store i32 %95, i32* %93, align 4
  br label %96

96:                                               ; preds = %90, %83, %76
  %97 = load i32, i32* %8, align 4
  %98 = sext i32 %97 to i64
  %99 = getelementptr inbounds [100 x %struct.anon], [100 x %struct.anon]* %10, i64 0, i64 %98
  %100 = getelementptr inbounds %struct.anon, %struct.anon* %99, i32 0, i32 1
  %101 = load i32, i32* %100, align 4
  %102 = icmp sgt i32 %101, 90
  br i1 %102, label %103, label %109

103:                                              ; preds = %96
  %104 = load i32, i32* %8, align 4
  %105 = sext i32 %104 to i64
  %106 = getelementptr inbounds [100 x i32], [100 x i32]* %7, i64 0, i64 %105
  %107 = load i32, i32* %106, align 4
  %108 = add nsw i32 %107, 2000
  store i32 %108, i32* %106, align 4
  br label %109

109:                                              ; preds = %103, %96
  %110 = load i32, i32* %8, align 4
  %111 = sext i32 %110 to i64
  %112 = getelementptr inbounds [100 x %struct.anon], [100 x %struct.anon]* %10, i64 0, i64 %111
  %113 = getelementptr inbounds %struct.anon, %struct.anon* %112, i32 0, i32 1
  %114 = load i32, i32* %113, align 4
  %115 = icmp sgt i32 %114, 85
  br i1 %115, label %116, label %130

116:                                              ; preds = %109
  %117 = load i32, i32* %8, align 4
  %118 = sext i32 %117 to i64
  %119 = getelementptr inbounds [100 x %struct.anon], [100 x %struct.anon]* %10, i64 0, i64 %118
  %120 = getelementptr inbounds %struct.anon, %struct.anon* %119, i32 0, i32 4
  %121 = load i8, i8* %120, align 1
  %122 = sext i8 %121 to i32
  %123 = icmp eq i32 %122, 89
  br i1 %123, label %124, label %130

124:                                              ; preds = %116
  %125 = load i32, i32* %8, align 4
  %126 = sext i32 %125 to i64
  %127 = getelementptr inbounds [100 x i32], [100 x i32]* %7, i64 0, i64 %126
  %128 = load i32, i32* %127, align 4
  %129 = add nsw i32 %128, 1000
  store i32 %129, i32* %127, align 4
  br label %130

130:                                              ; preds = %124, %116, %109
  %131 = load i32, i32* %8, align 4
  %132 = sext i32 %131 to i64
  %133 = getelementptr inbounds [100 x %struct.anon], [100 x %struct.anon]* %10, i64 0, i64 %132
  %134 = getelementptr inbounds %struct.anon, %struct.anon* %133, i32 0, i32 2
  %135 = load i32, i32* %134, align 4
  %136 = icmp sgt i32 %135, 80
  br i1 %136, label %137, label %151

137:                                              ; preds = %130
  %138 = load i32, i32* %8, align 4
  %139 = sext i32 %138 to i64
  %140 = getelementptr inbounds [100 x %struct.anon], [100 x %struct.anon]* %10, i64 0, i64 %139
  %141 = getelementptr inbounds %struct.anon, %struct.anon* %140, i32 0, i32 3
  %142 = load i8, i8* %141, align 4
  %143 = sext i8 %142 to i32
  %144 = icmp eq i32 %143, 89
  br i1 %144, label %145, label %151

145:                                              ; preds = %137
  %146 = load i32, i32* %8, align 4
  %147 = sext i32 %146 to i64
  %148 = getelementptr inbounds [100 x i32], [100 x i32]* %7, i64 0, i64 %147
  %149 = load i32, i32* %148, align 4
  %150 = add nsw i32 %149, 850
  store i32 %150, i32* %148, align 4
  br label %151

151:                                              ; preds = %145, %137, %130
  br label %152

152:                                              ; preds = %151
  %153 = load i32, i32* %8, align 4
  %154 = add nsw i32 %153, 1
  store i32 %154, i32* %8, align 4
  br label %52

155:                                              ; preds = %52
  %156 = getelementptr inbounds [100 x i32], [100 x i32]* %7, i64 0, i64 0
  %157 = load i32, i32* %156, align 16
  store i32 %157, i32* %11, align 4
  %158 = getelementptr inbounds [100 x i32], [100 x i32]* %7, i64 0, i64 0
  %159 = load i32, i32* %158, align 16
  store i32 %159, i32* %12, align 4
  store i32 1, i32* %8, align 4
  br label %160

160:                                              ; preds = %184, %155
  %161 = load i32, i32* %8, align 4
  %162 = load i32, i32* %6, align 4
  %163 = icmp slt i32 %161, %162
  br i1 %163, label %164, label %187

164:                                              ; preds = %160
  %165 = load i32, i32* %8, align 4
  %166 = sext i32 %165 to i64
  %167 = getelementptr inbounds [100 x i32], [100 x i32]* %7, i64 0, i64 %166
  %168 = load i32, i32* %167, align 4
  %169 = load i32, i32* %12, align 4
  %170 = add nsw i32 %169, %168
  store i32 %170, i32* %12, align 4
  %171 = load i32, i32* %8, align 4
  %172 = sext i32 %171 to i64
  %173 = getelementptr inbounds [100 x i32], [100 x i32]* %7, i64 0, i64 %172
  %174 = load i32, i32* %173, align 4
  %175 = load i32, i32* %11, align 4
  %176 = icmp sgt i32 %174, %175
  br i1 %176, label %177, label %183

177:                                              ; preds = %164
  %178 = load i32, i32* %8, align 4
  %179 = sext i32 %178 to i64
  %180 = getelementptr inbounds [100 x i32], [100 x i32]* %7, i64 0, i64 %179
  %181 = load i32, i32* %180, align 4
  store i32 %181, i32* %11, align 4
  %182 = load i32, i32* %8, align 4
  store i32 %182, i32* %9, align 4
  br label %183

183:                                              ; preds = %177, %164
  br label %184

184:                                              ; preds = %183
  %185 = load i32, i32* %8, align 4
  %186 = add nsw i32 %185, 1
  store i32 %186, i32* %8, align 4
  br label %160

187:                                              ; preds = %160
  %188 = load i32, i32* %9, align 4
  %189 = sext i32 %188 to i64
  %190 = getelementptr inbounds [100 x %struct.anon], [100 x %struct.anon]* %10, i64 0, i64 %189
  %191 = getelementptr inbounds %struct.anon, %struct.anon* %190, i32 0, i32 0
  %192 = getelementptr inbounds [20 x i8], [20 x i8]* %191, i64 0, i64 0
  %193 = call i32 (i8*, ...) @printf(i8* getelementptr inbounds ([4 x i8], [4 x i8]* @.str.2, i64 0, i64 0), i8* %192)
  %194 = load i32, i32* %9, align 4
  %195 = sext i32 %194 to i64
  %196 = getelementptr inbounds [100 x i32], [100 x i32]* %7, i64 0, i64 %195
  %197 = load i32, i32* %196, align 4
  %198 = call i32 (i8*, ...) @printf(i8* getelementptr inbounds ([4 x i8], [4 x i8]* @.str.3, i64 0, i64 0), i32 %197)
  %199 = load i32, i32* %12, align 4
  %200 = call i32 (i8*, ...) @printf(i8* getelementptr inbounds ([4 x i8], [4 x i8]* @.str.3, i64 0, i64 0), i32 %199)
  ret i32 0
}

declare dso_local i32 @__isoc99_scanf(i8*, ...) #1

declare dso_local i32 @printf(i8*, ...) #1


!llvm.module.flags = !{!0}
!llvm.ident = !{!1}

!0 = !{i32 1, !"wchar_size", i32 4}
!1 = !{!"clang version 10.0.0-4ubuntu1 "}
